target datalayout = "e-m:e-p270:32:32-p271:32:32-p272:64:64-i64:64-i128:128-f80:128-n8:16:32:64-S128"
target triple = "x86_64-pc-linux-gnu"

%struct._per_sequence_t = type { ptr, i32, i32, ptr }
%struct.except_id_t = type { i64, i64 }
%struct._asn1_ctx_t = type { i32, i32, i8, ptr, ptr, ptr, ptr, ptr, %struct.anon, %struct.anon.2, %struct.anon.3, ptr }
%struct.anon = type { i32, i8, i8, i8, ptr, ptr, i32, i32, ptr, ptr, ptr, %union.anon }
%union.anon = type { %struct.anon.0 }
%struct.anon.0 = type { ptr }
%struct.anon.2 = type { ptr, ptr, ptr }
%struct.anon.3 = type { i32, i8, ptr, i32, i32, ptr, ptr, ptr, %union.anon.4 }
%union.anon.4 = type { %struct.anon.5 }
%struct.anon.5 = type { ptr }
%struct._packet_info = type { ptr, ptr, i32, i32, %struct.nstime_t, %struct.nstime_t, %struct.nstime_t, i8, ptr, ptr, ptr, ptr, %struct._address, %struct._address, %struct._address, %struct._address, %struct._address, %struct._address, i32, ptr, i8, [3 x i8], %struct.anon.7, i32, i32, i32, i32, ptr, i8, ptr, ptr, i16, i16, i32, i32, i16, i32, i32, ptr, ptr, ptr, i8, i8, i16, i16, i16, i32, i16, i16, ptr, ptr, ptr, ptr, ptr, i32, i32 }
%struct.nstime_t = type { i64, i32 }
%struct._address = type { i32, i32, ptr, ptr }
%struct.anon.7 = type { i8, [3 x i8] }
%struct.except_stacknode = type { ptr, i32, %union.anon.8 }
%union.anon.8 = type { ptr }
%struct.except_catch = type { ptr, i64, %struct.except_t, [1 x %struct.__jmp_buf_tag] }
%struct.except_t = type { %struct.except_id_t, ptr, ptr }
%struct.__jmp_buf_tag = type { [8 x i64], i32, %struct.__sigset_t }
%struct.__sigset_t = type { [16 x i64] }

@ett_t124_ConnectData = internal global i32 0, align 4
@top_tree = internal global ptr null, align 8
@hf_t124_ConnectData = internal global i32 0, align 4
@hf_t124_connectGCCPDU = internal global i32 0, align 4
@ett_t124 = internal global i32 0, align 4
@.str.460 = private unnamed_addr constant [6 x i8] c"T.124\00", align 1
@proto_t124 = internal global i32 0, align 4
@.str.464 = private unnamed_addr constant [15 x i8] c"0.0.20.124.0.1\00", align 1
@dissect_t124_heur.catch_spec = internal constant [1 x %struct.except_id_t] [%struct.except_id_t { i64 1, i64 0 }], align 16
@t124Heur_sequence = internal constant [2 x %struct._per_sequence_t] [%struct._per_sequence_t { ptr @hf_t124_t124Identifier, i32 0, i32 0, ptr @dissect_t124_Key }, %struct._per_sequence_t zeroinitializer], align 16

; Function Attrs: null_pointer_is_valid sspstrong uwtable
define hidden i32 @dissect_t124_ConnectData(ptr noundef %0, i32 noundef %1, ptr noundef %2, ptr noundef %3, i32 noundef %4) #0 {
  %6 = alloca ptr, align 8
  %7 = alloca i32, align 4
  %8 = alloca ptr, align 8
  %9 = alloca ptr, align 8
  %10 = alloca i32, align 4
  store ptr %0, ptr %6, align 8
  store i32 %1, ptr %7, align 4
  store ptr %2, ptr %8, align 8
  store ptr %3, ptr %9, align 8
  store i32 %4, ptr %10, align 4
  %11 = load ptr, ptr %6, align 8
  %12 = load i32, ptr %7, align 4
  %13 = load ptr, ptr %8, align 8
  %14 = load ptr, ptr %9, align 8
  %15 = load i32, ptr %10, align 4
  %16 = load i32, ptr @ett_t124_ConnectData, align 4
  %17 = call i32 @dissect_per_sequence(ptr noundef %11, i32 noundef %12, ptr noundef %13, ptr noundef %14, i32 noundef %15, i32 noundef %16, ptr noundef @ConnectData_sequence)
  store i32 %17, ptr %7, align 4
  %18 = load i32, ptr %7, align 4
  ret i32 %18
}

; Function Attrs: null_pointer_is_valid sspstrong uwtable
define internal i32 @dissect_t124(ptr noundef %0, ptr noundef %1, ptr noundef %2, ptr noundef %3) #0 {
  %5 = alloca ptr, align 8
  %6 = alloca ptr, align 8
  %7 = alloca ptr, align 8
  %8 = alloca ptr, align 8
  %9 = alloca ptr, align 8
  %10 = alloca ptr, align 8
  %11 = alloca %struct._asn1_ctx_t, align 8
  store ptr %0, ptr %5, align 8
  store ptr %1, ptr %6, align 8
  store ptr %2, ptr %7, align 8
  store ptr %3, ptr %8, align 8
  call void @llvm.lifetime.start.p0(i64 8, ptr %9) #7
  store ptr null, ptr %9, align 8
  call void @llvm.lifetime.start.p0(i64 8, ptr %10) #7
  store ptr null, ptr %10, align 8
  call void @llvm.lifetime.start.p0(i64 208, ptr %11) #7
  %12 = load ptr, ptr %7, align 8
  store ptr %12, ptr @top_tree, align 8
  %13 = load ptr, ptr %6, align 8
  %14 = getelementptr inbounds nuw %struct._packet_info, ptr %13, i32 0, i32 1
  %15 = load ptr, ptr %14, align 8
  call void @col_set_str(ptr noundef %15, i32 noundef 35, ptr noundef @.str.460)
  %16 = load ptr, ptr %6, align 8
  %17 = getelementptr inbounds nuw %struct._packet_info, ptr %16, i32 0, i32 1
  %18 = load ptr, ptr %17, align 8
  call void @col_clear(ptr noundef %18, i32 noundef 25)
  %19 = load ptr, ptr %7, align 8
  %20 = load i32, ptr @proto_t124, align 4
  %21 = load ptr, ptr %5, align 8
  %22 = load ptr, ptr %5, align 8
  %23 = call i32 @tvb_captured_length(ptr noundef %22)
  %24 = call ptr @proto_tree_add_item(ptr noundef %19, i32 noundef %20, ptr noundef %21, i32 noundef 0, i32 noundef %23, i32 noundef 0)
  store ptr %24, ptr %9, align 8
  %25 = load ptr, ptr %9, align 8
  %26 = load i32, ptr @ett_t124, align 4
  %27 = call ptr @proto_item_add_subtree(ptr noundef %25, i32 noundef %26)
  store ptr %27, ptr %10, align 8
  %28 = load ptr, ptr %6, align 8
  call void @asn1_ctx_init(ptr noundef %11, i32 noundef 1, i1 noundef zeroext true, ptr noundef %28)
  %29 = load ptr, ptr %5, align 8
  %30 = load ptr, ptr %10, align 8
  %31 = load i32, ptr @hf_t124_ConnectData, align 4
  %32 = call i32 @dissect_t124_ConnectData(ptr noundef %29, i32 noundef 0, ptr noundef %11, ptr noundef %30, i32 noundef %31)
  %33 = load ptr, ptr %5, align 8
  %34 = call i32 @tvb_captured_length(ptr noundef %33)
  call void @llvm.lifetime.end.p0(i64 208, ptr %11) #7
  call void @llvm.lifetime.end.p0(i64 8, ptr %10) #7
  call void @llvm.lifetime.end.p0(i64 8, ptr %9) #7
  ret i32 %34
}

; Function Attrs: null_pointer_is_valid sspstrong uwtable
define internal zeroext i1 @dissect_t124_heur(ptr noundef %0, ptr noundef %1, ptr noundef %2, ptr noundef %3) #0 {
  %5 = alloca i1, align 1
  %6 = alloca ptr, align 8
  %7 = alloca ptr, align 8
  %8 = alloca ptr, align 8
  %9 = alloca ptr, align 8
  %10 = alloca %struct._asn1_ctx_t, align 8
  %11 = alloca i8, align 1
  %12 = alloca ptr, align 8
  %13 = alloca i32, align 4
  %14 = alloca %struct.except_stacknode, align 8
  %15 = alloca %struct.except_catch, align 8
  %16 = alloca i32, align 4
  store ptr %0, ptr %6, align 8
  store ptr %1, ptr %7, align 8
  store ptr %2, ptr %8, align 8
  store ptr %3, ptr %9, align 8
  call void @llvm.lifetime.start.p0(i64 208, ptr %10) #7
  call void @llvm.lifetime.start.p0(i64 1, ptr %11) #7
  store volatile i8 0, ptr %11, align 1
  %17 = load ptr, ptr %7, align 8
  call void @asn1_ctx_init(ptr noundef %10, i32 noundef 1, i1 noundef zeroext true, ptr noundef %17)
  call void @llvm.lifetime.start.p0(i64 8, ptr %12) #7
  call void @llvm.lifetime.start.p0(i64 4, ptr %13) #7
  store volatile i32 0, ptr %13, align 4
  call void @llvm.lifetime.start.p0(i64 24, ptr %14) #7
  call void @llvm.lifetime.start.p0(i64 248, ptr %15) #7
  call void @except_setup_try(ptr noundef %14, ptr noundef %15, ptr noundef @dissect_t124_heur.catch_spec, i64 noundef 1)
  %18 = getelementptr inbounds nuw %struct.except_catch, ptr %15, i32 0, i32 3
  %19 = getelementptr inbounds [1 x %struct.__jmp_buf_tag], ptr %18, i64 0, i64 0
  %20 = call i32 @_setjmp(ptr noundef %19) #8
  %21 = icmp ne i32 %20, 0
  br i1 %21, label %22, label %24

22:                                               ; preds = %4
  %23 = getelementptr inbounds nuw %struct.except_catch, ptr %15, i32 0, i32 2
  store volatile ptr %23, ptr %12, align 8
  br label %25

24:                                               ; preds = %4
  store volatile ptr null, ptr %12, align 8
  br label %25

25:                                               ; preds = %24, %22
  %26 = load volatile i32, ptr %13, align 4
  %27 = and i32 %26, 1
  %28 = icmp ne i32 %27, 0
  br i1 %28, label %29, label %32

29:                                               ; preds = %25
  %30 = load volatile i32, ptr %13, align 4
  %31 = or i32 %30, 2
  store volatile i32 %31, ptr %13, align 4
  br label %32

32:                                               ; preds = %29, %25
  %33 = load volatile i32, ptr %13, align 4
  %34 = and i32 %33, -2
  store volatile i32 %34, ptr %13, align 4
  %35 = load volatile i32, ptr %13, align 4
  %36 = icmp eq i32 %35, 0
  br i1 %36, label %37, label %44

37:                                               ; preds = %32
  %38 = load volatile ptr, ptr %12, align 8
  %39 = icmp eq ptr %38, null
  br i1 %39, label %40, label %44

40:                                               ; preds = %37
  %41 = load ptr, ptr %6, align 8
  %42 = load i32, ptr @hf_t124_connectGCCPDU, align 4
  %43 = call i32 @dissect_per_sequence(ptr noundef %41, i32 noundef 0, ptr noundef %10, ptr noundef null, i32 noundef %42, i32 noundef -1, ptr noundef @t124Heur_sequence)
  br label %44

44:                                               ; preds = %40, %37, %32
  %45 = load volatile i32, ptr %13, align 4
  %46 = icmp eq i32 %45, 0
  br i1 %46, label %47, label %85

47:                                               ; preds = %44
  %48 = load volatile ptr, ptr %12, align 8
  %49 = icmp ne ptr %48, null
  br i1 %49, label %50, label %85

50:                                               ; preds = %47
  %51 = load volatile ptr, ptr %12, align 8
  %52 = getelementptr inbounds nuw %struct.except_t, ptr %51, i32 0, i32 0
  %53 = getelementptr inbounds nuw %struct.except_id_t, ptr %52, i32 0, i32 1
  %54 = load volatile i64, ptr %53, align 8
  %55 = icmp eq i64 %54, 1
  br i1 %55, label %80, label %56

56:                                               ; preds = %50
  %57 = load volatile ptr, ptr %12, align 8
  %58 = getelementptr inbounds nuw %struct.except_t, ptr %57, i32 0, i32 0
  %59 = getelementptr inbounds nuw %struct.except_id_t, ptr %58, i32 0, i32 1
  %60 = load volatile i64, ptr %59, align 8
  %61 = icmp eq i64 %60, 4
  br i1 %61, label %80, label %62

62:                                               ; preds = %56
  %63 = load volatile ptr, ptr %12, align 8
  %64 = getelementptr inbounds nuw %struct.except_t, ptr %63, i32 0, i32 0
  %65 = getelementptr inbounds nuw %struct.except_id_t, ptr %64, i32 0, i32 1
  %66 = load volatile i64, ptr %65, align 8
  %67 = icmp eq i64 %66, 3
  br i1 %67, label %80, label %68

68:                                               ; preds = %62
  %69 = load volatile ptr, ptr %12, align 8
  %70 = getelementptr inbounds nuw %struct.except_t, ptr %69, i32 0, i32 0
  %71 = getelementptr inbounds nuw %struct.except_id_t, ptr %70, i32 0, i32 1
  %72 = load volatile i64, ptr %71, align 8
  %73 = icmp eq i64 %72, 2
  br i1 %73, label %80, label %74

74:                                               ; preds = %68
  %75 = load volatile ptr, ptr %12, align 8
  %76 = getelementptr inbounds nuw %struct.except_t, ptr %75, i32 0, i32 0
  %77 = getelementptr inbounds nuw %struct.except_id_t, ptr %76, i32 0, i32 1
  %78 = load volatile i64, ptr %77, align 8
  %79 = icmp eq i64 %78, 7
  br i1 %79, label %80, label %85

80:                                               ; preds = %74, %68, %62, %56, %50
  %81 = load volatile i32, ptr %13, align 4
  %82 = or i32 %81, 1
  store volatile i32 %82, ptr %13, align 4
  %83 = icmp ne i32 %82, 0
  br i1 %83, label %84, label %85

84:                                               ; preds = %80
  store volatile i8 1, ptr %11, align 1
  br label %85

85:                                               ; preds = %84, %80, %74, %47, %44
  %86 = load volatile i32, ptr %13, align 4
  %87 = and i32 %86, 1
  %88 = icmp ne i32 %87, 0
  br i1 %88, label %94, label %89

89:                                               ; preds = %85
  %90 = load volatile ptr, ptr %12, align 8
  %91 = icmp ne ptr %90, null
  br i1 %91, label %92, label %94

92:                                               ; preds = %89
  %93 = load volatile ptr, ptr %12, align 8
  call void @except_rethrow(ptr noundef %93) #9
  unreachable

94:                                               ; preds = %89, %85
  %95 = getelementptr inbounds nuw %struct.except_catch, ptr %15, i32 0, i32 2
  %96 = getelementptr inbounds nuw %struct.except_t, ptr %95, i32 0, i32 2
  %97 = load volatile ptr, ptr %96, align 8
  call void @except_free(ptr noundef %97)
  %98 = call ptr @except_pop()
  call void @llvm.lifetime.end.p0(i64 248, ptr %15) #7
  call void @llvm.lifetime.end.p0(i64 24, ptr %14) #7
  call void @llvm.lifetime.end.p0(i64 4, ptr %13) #7
  call void @llvm.lifetime.end.p0(i64 8, ptr %12) #7
  %99 = load volatile i8, ptr %11, align 1, !range !6, !noundef !7
  %100 = trunc i8 %99 to i1
  br i1 %100, label %118, label %101

101:                                              ; preds = %94
  %102 = getelementptr inbounds nuw %struct._asn1_ctx_t, ptr %10, i32 0, i32 8
  %103 = getelementptr inbounds nuw %struct.anon, ptr %102, i32 0, i32 5
  %104 = load ptr, ptr %103, align 8
  %105 = icmp ne ptr %104, null
  br i1 %105, label %106, label %118

106:                                              ; preds = %101
  %107 = getelementptr inbounds nuw %struct._asn1_ctx_t, ptr %10, i32 0, i32 8
  %108 = getelementptr inbounds nuw %struct.anon, ptr %107, i32 0, i32 5
  %109 = load ptr, ptr %108, align 8
  %110 = call i32 @strcmp(ptr noundef %109, ptr noundef @.str.464) #10
  %111 = icmp eq i32 %110, 0
  br i1 %111, label %112, label %118

112:                                              ; preds = %106
  %113 = load ptr, ptr %6, align 8
  %114 = load ptr, ptr %7, align 8
  %115 = load ptr, ptr %8, align 8
  %116 = load ptr, ptr %9, align 8
  %117 = call i32 @dissect_t124(ptr noundef %113, ptr noundef %114, ptr noundef %115, ptr noundef %116)
  store i1 true, ptr %5, align 1
  store i32 1, ptr %16, align 4
  br label %119

118:                                              ; preds = %106, %101, %94
  store i1 false, ptr %5, align 1
  store i32 1, ptr %16, align 4
  br label %119

119:                                              ; preds = %118, %112
  call void @llvm.lifetime.end.p0(i64 1, ptr %11) #7
  call void @llvm.lifetime.end.p0(i64 208, ptr %10) #7
  %120 = load i1, ptr %5, align 1
  ret i1 %120
}