; Function Attrs: null_pointer_is_valid sspstrong uwtable
define internal noundef zeroext i1 @dissect_t124_heur(ptr noundef %0, ptr noundef %1, ptr noundef %2, ptr readnone captures(none) %3) #0 {
  %5 = alloca %struct._asn1_ctx_t, align 8
  %6 = alloca %struct._asn1_ctx_t, align 8
  %7 = alloca i8, align 1
  %8 = alloca ptr, align 8
  %9 = alloca i32, align 4
  %10 = alloca %struct.except_stacknode, align 8
  %11 = alloca %struct.except_catch, align 8
  call void @llvm.lifetime.start.p0(i64 208, ptr nonnull %6) #8
  call void @llvm.lifetime.start.p0(i64 1, ptr nonnull %7)
  store volatile i8 0, ptr %7, align 1
  call void @asn1_ctx_init(ptr noundef nonnull %6, i32 noundef 1, i1 noundef zeroext true, ptr noundef %1)
  call void @llvm.lifetime.start.p0(i64 8, ptr nonnull %8)
  call void @llvm.lifetime.start.p0(i64 4, ptr nonnull %9)
  store volatile i32 0, ptr %9, align 4
  call void @llvm.lifetime.start.p0(i64 24, ptr nonnull %10) #8
  call void @llvm.lifetime.start.p0(i64 248, ptr nonnull %11) #8
  call void @except_setup_try(ptr noundef nonnull %10, ptr noundef nonnull %11, ptr noundef nonnull @dissect_t124_heur.catch_spec, i64 noundef 1)
  %12 = getelementptr inbounds nuw i8, ptr %11, i64 48
  %13 = call i32 @_setjmp(ptr noundef nonnull %12) #9
  %.not28 = icmp eq i32 %13, 0
  %14 = getelementptr inbounds nuw i8, ptr %11, i64 16
  %.sink = select i1 %.not28, ptr null, ptr %14
  store volatile ptr %.sink, ptr %8, align 8
  %.0..0..0..0. = load volatile i32, ptr %9, align 4
  %15 = and i32 %.0..0..0..0., 1
  %.not29 = icmp eq i32 %15, 0
  br i1 %.not29, label %18, label %16

16:                                               ; preds = %4
  %.0..0..0..0.4 = load volatile i32, ptr %9, align 4
  %17 = or i32 %.0..0..0..0.4, 2
  store volatile i32 %17, ptr %9, align 4
  br label %18

18:                                               ; preds = %16, %4
  %.0..0..0..0.5 = load volatile i32, ptr %9, align 4
  %19 = and i32 %.0..0..0..0.5, -2
  store volatile i32 %19, ptr %9, align 4
  %.0..0..0..0.6 = load volatile i32, ptr %9, align 4
  %20 = icmp eq i32 %.0..0..0..0.6, 0
  br i1 %20, label %21, label %26

21:                                               ; preds = %18
  %.0..0..0..0.10 = load volatile ptr, ptr %8, align 8
  %22 = icmp eq ptr %.0..0..0..0.10, null
  br i1 %22, label %23, label %26

23:                                               ; preds = %21
  %24 = load i32, ptr @hf_t124_connectGCCPDU, align 4
  %25 = call i32 @dissect_per_sequence(ptr noundef %0, i32 noundef 0, ptr noundef nonnull %6, ptr noundef null, i32 noundef %24, i32 noundef -1, ptr noundef nonnull @t124Heur_sequence)
  br label %26

26:                                               ; preds = %23, %21, %18
  %.0..0..0..0.7 = load volatile i32, ptr %9, align 4
  %27 = icmp eq i32 %.0..0..0..0.7, 0
  br i1 %27, label %28, label %51

28:                                               ; preds = %26
  %.0..0..0..0.11 = load volatile ptr, ptr %8, align 8
  %.not30 = icmp eq ptr %.0..0..0..0.11, null
  br i1 %.not30, label %51, label %29

29:                                               ; preds = %28
  %.0..0..0..0.12 = load volatile ptr, ptr %8, align 8
  %30 = getelementptr inbounds nuw i8, ptr %.0..0..0..0.12, i64 8
  %31 = load volatile i64, ptr %30, align 8
  %32 = icmp eq i64 %31, 1
  br i1 %32, label %49, label %33

33:                                               ; preds = %29
  %.0..0..0..0.13 = load volatile ptr, ptr %8, align 8
  %34 = getelementptr inbounds nuw i8, ptr %.0..0..0..0.13, i64 8
  %35 = load volatile i64, ptr %34, align 8
  %36 = icmp eq i64 %35, 4
  br i1 %36, label %49, label %37

37:                                               ; preds = %33
  %.0..0..0..0.14 = load volatile ptr, ptr %8, align 8
  %38 = getelementptr inbounds nuw i8, ptr %.0..0..0..0.14, i64 8
  %39 = load volatile i64, ptr %38, align 8
  %40 = icmp eq i64 %39, 3
  br i1 %40, label %49, label %41

41:                                               ; preds = %37
  %.0..0..0..0.15 = load volatile ptr, ptr %8, align 8
  %42 = getelementptr inbounds nuw i8, ptr %.0..0..0..0.15, i64 8
  %43 = load volatile i64, ptr %42, align 8
  %44 = icmp eq i64 %43, 2
  br i1 %44, label %49, label %45

45:                                               ; preds = %41
  %.0..0..0..0.16 = load volatile ptr, ptr %8, align 8
  %46 = getelementptr inbounds nuw i8, ptr %.0..0..0..0.16, i64 8
  %47 = load volatile i64, ptr %46, align 8
  %48 = icmp eq i64 %47, 7
  br i1 %48, label %49, label %51

49:                                               ; preds = %45, %41, %37, %33, %29
  %.0..0..0..0.8 = load volatile i32, ptr %9, align 4
  %50 = or i32 %.0..0..0..0.8, 1
  store volatile i32 %50, ptr %9, align 4
  store volatile i8 1, ptr %7, align 1
  br label %51

51:                                               ; preds = %49, %45, %28, %26
  %.0..0..0..0.9 = load volatile i32, ptr %9, align 4
  %52 = and i32 %.0..0..0..0.9, 1
  %.not31 = icmp eq i32 %52, 0
  br i1 %.not31, label %53, label %55

53:                                               ; preds = %51
  %.0..0..0..0.17 = load volatile ptr, ptr %8, align 8
  %.not32 = icmp eq ptr %.0..0..0..0.17, null
  br i1 %.not32, label %55, label %54

54:                                               ; preds = %53
  %.0..0..0..0.18 = load volatile ptr, ptr %8, align 8
  call void @except_rethrow(ptr noundef %.0..0..0..0.18) #10
  unreachable

55:                                               ; preds = %53, %51
  %56 = getelementptr inbounds nuw i8, ptr %11, i64 40
  %57 = load volatile ptr, ptr %56, align 8
  call void @except_free(ptr noundef %57)
  %58 = call ptr @except_pop()
  call void @llvm.lifetime.end.p0(i64 248, ptr nonnull %11) #8
  call void @llvm.lifetime.end.p0(i64 24, ptr nonnull %10) #8
  call void @llvm.lifetime.end.p0(i64 4, ptr nonnull %9)
  call void @llvm.lifetime.end.p0(i64 8, ptr nonnull %8)
  %.0..0..0..0.19 = load volatile i8, ptr %7, align 1, !range !6, !noundef !7
  %59 = trunc nuw i8 %.0..0..0..0.19 to i1
  %60 = getelementptr inbounds nuw i8, ptr %6, i64 72
  %61 = load ptr, ptr %60, align 8
  %62 = icmp eq ptr %61, null
  %or.cond.not = select i1 %59, i1 true, i1 %62
  br i1 %or.cond.not, label %79, label %63

63:                                               ; preds = %55
  %64 = call i32 @strcmp(ptr noundef nonnull dereferenceable(1) %61, ptr noundef nonnull dereferenceable(15) @.str.464) #11
  %65 = icmp eq i32 %64, 0
  br i1 %65, label %66, label %79

66:                                               ; preds = %63
  call void @llvm.lifetime.start.p0(i64 208, ptr nonnull %5) #8
  store ptr %2, ptr @top_tree, align 8
  %67 = getelementptr inbounds nuw i8, ptr %1, i64 8
  %68 = load ptr, ptr %67, align 8
  call void @col_set_str(ptr noundef %68, i32 noundef 35, ptr noundef nonnull @.str.460)
  %69 = load ptr, ptr %67, align 8
  call void @col_clear(ptr noundef %69, i32 noundef 25)
  %70 = load i32, ptr @proto_t124, align 4
  %71 = call i32 @tvb_captured_length(ptr noundef %0)
  %72 = call ptr @proto_tree_add_item(ptr noundef %2, i32 noundef %70, ptr noundef %0, i32 noundef 0, i32 noundef %71, i32 noundef 0)
  %73 = load i32, ptr @ett_t124, align 4
  %74 = call ptr @proto_item_add_subtree(ptr noundef %72, i32 noundef %73)
  call void @asn1_ctx_init(ptr noundef nonnull %5, i32 noundef 1, i1 noundef zeroext true, ptr noundef %1)
  %75 = load i32, ptr @hf_t124_ConnectData, align 4
  %76 = load i32, ptr @ett_t124_ConnectData, align 4
  %77 = call i32 @dissect_per_sequence(ptr noundef %0, i32 noundef 0, ptr noundef nonnull %5, ptr noundef %74, i32 noundef %75, i32 noundef %76, ptr noundef nonnull @ConnectData_sequence)
  %78 = call i32 @tvb_captured_length(ptr noundef %0)
  call void @llvm.lifetime.end.p0(i64 208, ptr nonnull %5) #8
  br label %79

79:                                               ; preds = %55, %63, %66
  %.0 = phi i1 [ true, %66 ], [ false, %63 ], [ false, %55 ]
  call void @llvm.lifetime.end.p0(i64 1, ptr nonnull %7)
  call void @llvm.lifetime.end.p0(i64 208, ptr nonnull %6) #8
  ret i1 %.0
}